; Function Attrs: mustprogress uwtable
define hidden void @_ZN17duckdb_libpgquery23core_yypop_buffer_stateEPv(ptr noundef captures(none) %0) local_unnamed_addr #0 {
  %2 = getelementptr inbounds nuw i8, ptr %0, i64 40
  %3 = load ptr, ptr %2, align 8, !tbaa !19
  %.not = icmp eq ptr %3, null
  br i1 %.not, label %.critedge26, label %4

4:                                                ; preds = %1
  %5 = getelementptr inbounds nuw i8, ptr %0, i64 24
  %6 = load i64, ptr %5, align 8, !tbaa !20
  %7 = getelementptr inbounds nuw ptr, ptr %3, i64 %6
  %8 = load ptr, ptr %7, align 8, !tbaa !21
  %9 = icmp eq ptr %8, null
  br i1 %9, label %.critedge26, label %.thread.i

.thread.i:                                        ; preds = %4
  store ptr null, ptr %7, align 8, !tbaa !21
  %10 = getelementptr inbounds nuw i8, ptr %8, i64 40
  %11 = load i32, ptr %10, align 8, !tbaa !78
  %.not15.i = icmp eq i32 %11, 0
  br i1 %.not15.i, label %_ZN17duckdb_libpgquery21core_yy_delete_bufferEPNS_15yy_buffer_stateEPv.exit, label %12

12:                                               ; preds = %.thread.i
  %13 = getelementptr inbounds nuw i8, ptr %8, i64 8
  %14 = load ptr, ptr %13, align 8, !tbaa !71
  %.not.i.i = icmp eq ptr %14, null
  br i1 %.not.i.i, label %_ZN17duckdb_libpgquery21core_yy_delete_bufferEPNS_15yy_buffer_stateEPv.exit, label %15

15:                                               ; preds = %12
  tail call void @_ZN17duckdb_libpgquery5pfreeEPv(ptr noundef nonnull %14)
  br label %_ZN17duckdb_libpgquery21core_yy_delete_bufferEPNS_15yy_buffer_stateEPv.exit

_ZN17duckdb_libpgquery21core_yy_delete_bufferEPNS_15yy_buffer_stateEPv.exit: ; preds = %.thread.i, %12, %15
  tail call void @_ZN17duckdb_libpgquery5pfreeEPv(ptr noundef nonnull %8)
  %16 = load ptr, ptr %2, align 8, !tbaa !19
  %17 = load i64, ptr %5, align 8, !tbaa !20
  %18 = getelementptr inbounds nuw ptr, ptr %16, i64 %17
  store ptr null, ptr %18, align 8, !tbaa !21
  %.not22 = icmp eq i64 %17, 0
  br i1 %.not22, label %.critedge26, label %19

19:                                               ; preds = %_ZN17duckdb_libpgquery21core_yy_delete_bufferEPNS_15yy_buffer_stateEPv.exit
  %20 = add i64 %17, -1
  store i64 %20, ptr %5, align 8, !tbaa !20
  %.phi.trans.insert = getelementptr inbounds nuw ptr, ptr %16, i64 %20
  %.pre = load ptr, ptr %.phi.trans.insert, align 8, !tbaa !21
  %21 = icmp eq ptr %.pre, null
  br i1 %21, label %.critedge26, label %22

22:                                               ; preds = %19
  %23 = getelementptr inbounds nuw i8, ptr %.pre, i64 32
  %24 = load i64, ptr %23, align 8, !tbaa !25
  %25 = getelementptr inbounds nuw i8, ptr %0, i64 56
  store i64 %24, ptr %25, align 8, !tbaa !27
  %26 = getelementptr inbounds nuw i8, ptr %.pre, i64 16
  %27 = load ptr, ptr %26, align 8, !tbaa !28
  %28 = getelementptr inbounds nuw i8, ptr %0, i64 72
  store ptr %27, ptr %28, align 8, !tbaa !29
  %29 = getelementptr inbounds nuw i8, ptr %0, i64 136
  store ptr %27, ptr %29, align 8, !tbaa !30
  %30 = load ptr, ptr %.pre, align 8, !tbaa !31
  %31 = getelementptr inbounds nuw i8, ptr %0, i64 8
  store ptr %30, ptr %31, align 8, !tbaa !24
  %32 = load i8, ptr %27, align 1, !tbaa !32
  %33 = getelementptr inbounds nuw i8, ptr %0, i64 48
  store i8 %32, ptr %33, align 8, !tbaa !33
  %34 = getelementptr inbounds nuw i8, ptr %0, i64 88
  store i32 1, ptr %34, align 8, !tbaa !83
  br label %.critedge26

.critedge26:                                      ; preds = %_ZN17duckdb_libpgquery21core_yy_delete_bufferEPNS_15yy_buffer_stateEPv.exit, %1, %19, %22, %4
  ret void
}